; Function Attrs: nofree norecurse nosync nounwind memory(argmem: readwrite) uwtable
define range(i64 1, 0) i64 @HUFv06_readDTableX2(ptr noundef captures(none) %0, ptr noundef %1, i64 noundef %2) local_unnamed_addr #2 {
  %4 = alloca [256 x i8], align 16
  %5 = alloca [17 x i32], align 16
  %6 = alloca i32, align 4
  %7 = alloca i32, align 4
  call void @llvm.lifetime.start.p0(i64 256, ptr nonnull %4) #28
  call void @llvm.lifetime.start.p0(i64 68, ptr nonnull %5) #28
  call void @llvm.lifetime.start.p0(i64 4, ptr nonnull %6) #28
  store i32 0, ptr %6, align 4, !tbaa !3
  call void @llvm.lifetime.start.p0(i64 4, ptr nonnull %7) #28
  store i32 0, ptr %7, align 4, !tbaa !3
  %8 = getelementptr inbounds nuw i8, ptr %0, i64 2
  %9 = call fastcc i64 @HUFv06_readStats(ptr noundef %4, ptr noundef %5, ptr noundef %7, ptr noundef %6, ptr noundef %1, i64 noundef %2)
  %10 = icmp ult i64 %9, -119
  br i1 %10, label %11, label %.loopexit

11:                                               ; preds = %3
  %12 = load i32, ptr %6, align 4, !tbaa !3
  %13 = load i16, ptr %0, align 2, !tbaa !10
  %14 = zext i16 %13 to i32
  %15 = icmp ugt i32 %12, %14
  br i1 %15, label %.loopexit, label %16

16:                                               ; preds = %11
  %17 = trunc nuw i32 %12 to i16
  store i16 %17, ptr %0, align 2, !tbaa !10
  %.not37 = icmp eq i32 %12, 0
  br i1 %.not37, label %.preheader, label %.lr.ph.preheader

.lr.ph.preheader:                                 ; preds = %16
  %18 = add nuw nsw i32 %12, 1
  br label %.lr.ph

.preheader:                                       ; preds = %.lr.ph, %16
  %19 = load i32, ptr %7, align 4, !tbaa !3
  %.not = icmp eq i32 %19, 0
  br i1 %.not, label %.loopexit, label %.lr.ph43

.lr.ph43:                                         ; preds = %.preheader
  %20 = trunc i32 %12 to i8
  %21 = add i8 %20, 1
  %wide.trip.count52 = zext i32 %19 to i64
  br label %28

.lr.ph:                                           ; preds = %.lr.ph.preheader, %.lr.ph
  %indvars.iv = phi i64 [ 1, %.lr.ph.preheader ], [ %indvars.iv.next, %.lr.ph ]
  %.03438 = phi i32 [ 0, %.lr.ph.preheader ], [ %27, %.lr.ph ]
  %22 = getelementptr inbounds nuw [17 x i32], ptr %5, i64 0, i64 %indvars.iv
  %23 = load i32, ptr %22, align 4, !tbaa !3
  %24 = trunc i64 %indvars.iv to i32
  %25 = add i32 %24, -1
  %26 = shl i32 %23, %25
  %27 = add i32 %26, %.03438
  store i32 %.03438, ptr %22, align 4, !tbaa !3
  %indvars.iv.next = add nuw nsw i64 %indvars.iv, 1
  %lftr.wideiv = trunc i64 %indvars.iv.next to i32
  %exitcond.not = icmp eq i32 %18, %lftr.wideiv
  br i1 %exitcond.not, label %.preheader, label %.lr.ph, !llvm.loop !29

28:                                               ; preds = %.lr.ph43, %._crit_edge
  %indvars.iv49 = phi i64 [ 0, %.lr.ph43 ], [ %indvars.iv.next50, %._crit_edge ]
  %29 = getelementptr inbounds nuw [256 x i8], ptr %4, i64 0, i64 %indvars.iv49
  %30 = load i8, ptr %29, align 1, !tbaa !27
  %31 = zext nneg i8 %30 to i32
  %32 = shl nuw i32 1, %31
  %33 = ashr i32 %32, 1
  %34 = trunc i64 %indvars.iv49 to i8
  %35 = sub i8 %21, %30
  %36 = zext i8 %30 to i64
  %37 = getelementptr inbounds nuw [17 x i32], ptr %5, i64 0, i64 %36
  %38 = load i32, ptr %37, align 4, !tbaa !3
  %39 = add i32 %33, %38
  %40 = icmp ult i32 %38, %39
  br i1 %40, label %.lr.ph41.preheader, label %._crit_edge

.lr.ph41.preheader:                               ; preds = %28
  %41 = zext i32 %38 to i64
  %wide.trip.count = zext i32 %39 to i64
  br label %.lr.ph41

.lr.ph41:                                         ; preds = %.lr.ph41.preheader, %.lr.ph41
  %indvars.iv45 = phi i64 [ %41, %.lr.ph41.preheader ], [ %indvars.iv.next46, %.lr.ph41 ]
  %42 = getelementptr inbounds nuw %struct.HUFv06_DEltX2, ptr %8, i64 %indvars.iv45
  store i8 %34, ptr %42, align 1, !tbaa !27
  %.sroa.4.0..sroa_idx = getelementptr inbounds nuw i8, ptr %42, i64 1
  store i8 %35, ptr %.sroa.4.0..sroa_idx, align 1, !tbaa !27
  %indvars.iv.next46 = add nuw nsw i64 %indvars.iv45, 1
  %exitcond48.not = icmp eq i64 %indvars.iv.next46, %wide.trip.count
  br i1 %exitcond48.not, label %._crit_edge, label %.lr.ph41, !llvm.loop !30

._crit_edge:                                      ; preds = %.lr.ph41, %28
  store i32 %39, ptr %37, align 4, !tbaa !3
  %indvars.iv.next50 = add nuw nsw i64 %indvars.iv49, 1
  %exitcond53.not = icmp eq i64 %indvars.iv.next50, %wide.trip.count52
  br i1 %exitcond53.not, label %.loopexit, label %28, !llvm.loop !31

.loopexit:                                        ; preds = %._crit_edge, %.preheader, %11, %3
  %.0 = phi i64 [ %9, %3 ], [ -44, %11 ], [ %9, %.preheader ], [ %9, %._crit_edge ]
  call void @llvm.lifetime.end.p0(i64 4, ptr nonnull %7) #28
  call void @llvm.lifetime.end.p0(i64 4, ptr nonnull %6) #28
  call void @llvm.lifetime.end.p0(i64 68, ptr nonnull %5) #28
  call void @llvm.lifetime.end.p0(i64 256, ptr nonnull %4) #28
  ret i64 %.0
}